; ModuleID = '22/295.c'
source_filename = "22/295.c"
target datalayout = "e-m:e-p270:32:32-p271:32:32-p272:64:64-i64:64-f80:128-n8:16:32:64-S128"
target triple = "x86_64-pc-linux-gnu"

@.str = private unnamed_addr constant [3 x i8] c"%s\00", align 1
@.str.1 = private unnamed_addr constant [4 x i8] c"%d\0A\00", align 1
@.str.2 = private unnamed_addr constant [4 x i8] c"No\0A\00", align 1

; Function Attrs: noinline nounwind uwtable
define dso_local void @main() #0 {
  %1 = alloca i32, align 4
  %2 = alloca i32, align 4
  %3 = alloca i32, align 4
  %4 = alloca i32, align 4
  %5 = alloca [300 x i32], align 16
  %6 = alloca [1000 x i8], align 16
  %7 = alloca i8*, align 8
  %8 = bitcast [300 x i32]* %5 to i8*
  call void @llvm.memset.p0i8.i64(i8* align 16 %8, i8 0, i64 1200, i1 false)
  %9 = getelementptr inbounds [1000 x i8], [1000 x i8]* %6, i64 0, i64 0
  store i8* %9, i8** %7, align 8
  %10 = getelementptr inbounds [1000 x i8], [1000 x i8]* %6, i64 0, i64 0
  %11 = call i32 (i8*, ...) @__isoc99_scanf(i8* getelementptr inbounds ([3 x i8], [3 x i8]* @.str, i64 0, i64 0), i8* %10)
  store i32 0, i32* %1, align 4
  store i32 0, i32* %2, align 4
  br label %12

12:                                               ; preds = %49, %0
  %13 = load i8*, i8** %7, align 8
  %14 = load i32, i32* %1, align 4
  %15 = sext i32 %14 to i64
  %16 = getelementptr inbounds i8, i8* %13, i64 %15
  %17 = load i8, i8* %16, align 1
  %18 = sext i8 %17 to i32
  %19 = icmp ne i32 %18, 0
  br i1 %19, label %20, label %52

20:                                               ; preds = %12
  %21 = load i8*, i8** %7, align 8
  %22 = load i32, i32* %1, align 4
  %23 = sext i32 %22 to i64
  %24 = getelementptr inbounds i8, i8* %21, i64 %23
  %25 = load i8, i8* %24, align 1
  %26 = sext i8 %25 to i32
  %27 = icmp eq i32 %26, 44
  br i1 %27, label %28, label %31

28:                                               ; preds = %20
  %29 = load i32, i32* %2, align 4
  %30 = add nsw i32 %29, 1
  store i32 %30, i32* %2, align 4
  br label %48

31:                                               ; preds = %20
  %32 = load i32, i32* %2, align 4
  %33 = sext i32 %32 to i64
  %34 = getelementptr inbounds [300 x i32], [300 x i32]* %5, i64 0, i64 %33
  %35 = load i32, i32* %34, align 4
  %36 = mul nsw i32 10, %35
  %37 = load i8*, i8** %7, align 8
  %38 = load i32, i32* %1, align 4
  %39 = sext i32 %38 to i64
  %40 = getelementptr inbounds i8, i8* %37, i64 %39
  %41 = load i8, i8* %40, align 1
  %42 = sext i8 %41 to i32
  %43 = add nsw i32 %36, %42
  %44 = sub nsw i32 %43, 48
  %45 = load i32, i32* %2, align 4
  %46 = sext i32 %45 to i64
  %47 = getelementptr inbounds [300 x i32], [300 x i32]* %5, i64 0, i64 %46
  store i32 %44, i32* %47, align 4
  br label %48

48:                                               ; preds = %31, %28
  br label %49

49:                                               ; preds = %48
  %50 = load i32, i32* %1, align 4
  %51 = add nsw i32 %50, 1
  store i32 %51, i32* %1, align 4
  br label %12

52:                                               ; preds = %12
  %53 = load i32, i32* %2, align 4
  %54 = add nsw i32 %53, 1
  store i32 %54, i32* %4, align 4
  store i32 0, i32* %1, align 4
  br label %55

55:                                               ; preds = %102, %52
  %56 = load i32, i32* %1, align 4
  %57 = load i32, i32* %4, align 4
  %58 = sub nsw i32 %57, 1
  %59 = icmp slt i32 %56, %58
  br i1 %59, label %60, label %105

60:                                               ; preds = %55
  store i32 0, i32* %2, align 4
  br label %61

61:                                               ; preds = %98, %60
  %62 = load i32, i32* %2, align 4
  %63 = load i32, i32* %4, align 4
  %64 = sub nsw i32 %63, 1
  %65 = load i32, i32* %1, align 4
  %66 = sub nsw i32 %64, %65
  %67 = icmp slt i32 %62, %66
  br i1 %67, label %68, label %101

68:                                               ; preds = %61
  %69 = load i32, i32* %2, align 4
  %70 = sext i32 %69 to i64
  %71 = getelementptr inbounds [300 x i32], [300 x i32]* %5, i64 0, i64 %70
  %72 = load i32, i32* %71, align 4
  %73 = load i32, i32* %2, align 4
  %74 = add nsw i32 %73, 1
  %75 = sext i32 %74 to i64
  %76 = getelementptr inbounds [300 x i32], [300 x i32]* %5, i64 0, i64 %75
  %77 = load i32, i32* %76, align 4
  %78 = icmp slt i32 %72, %77
  br i1 %78, label %79, label %97

79:                                               ; preds = %68
  %80 = load i32, i32* %2, align 4
  %81 = sext i32 %80 to i64
  %82 = getelementptr inbounds [300 x i32], [300 x i32]* %5, i64 0, i64 %81
  %83 = load i32, i32* %82, align 4
  store i32 %83, i32* %3, align 4
  %84 = load i32, i32* %2, align 4
  %85 = add nsw i32 %84, 1
  %86 = sext i32 %85 to i64
  %87 = getelementptr inbounds [300 x i32], [300 x i32]* %5, i64 0, i64 %86
  %88 = load i32, i32* %87, align 4
  %89 = load i32, i32* %2, align 4
  %90 = sext i32 %89 to i64
  %91 = getelementptr inbounds [300 x i32], [300 x i32]* %5, i64 0, i64 %90
  store i32 %88, i32* %91, align 4
  %92 = load i32, i32* %3, align 4
  %93 = load i32, i32* %2, align 4
  %94 = add nsw i32 %93, 1
  %95 = sext i32 %94 to i64
  %96 = getelementptr inbounds [300 x i32], [300 x i32]* %5, i64 0, i64 %95
  store i32 %92, i32* %96, align 4
  br label %97

97:                                               ; preds = %79, %68
  br label %98

98:                                               ; preds = %97
  %99 = load i32, i32* %2, align 4
  %100 = add nsw i32 %99, 1
  store i32 %100, i32* %2, align 4
  br label %61

101:                                              ; preds = %61
  br label %102

102:                                              ; preds = %101
  %103 = load i32, i32* %1, align 4
  %104 = add nsw i32 %103, 1
  store i32 %104, i32* %1, align 4
  br label %55

105:                                              ; preds = %55
  store i32 1, i32* %1, align 4
  br label %106

106:                                              ; preds = %126, %105
  %107 = load i32, i32* %1, align 4
  %108 = load i32, i32* %4, align 4
  %109 = icmp slt i32 %107, %108
  br i1 %109, label %110, label %129

110:                                              ; preds = %106
  %111 = getelementptr inbounds [300 x i32], [300 x i32]* %5, i64 0, i64 0
  %112 = load i32, i32* %1, align 4
  %113 = sext i32 %112 to i64
  %114 = getelementptr inbounds i32, i32* %111, i64 %113
  %115 = load i32, i32* %114, align 4
  %116 = getelementptr inbounds [300 x i32], [300 x i32]* %5, i64 0, i64 0
  %117 = load i32, i32* %116, align 16
  %118 = icmp ne i32 %115, %117
  br i1 %118, label %119, label %125

119:                                              ; preds = %110
  %120 = load i32, i32* %1, align 4
  %121 = sext i32 %120 to i64
  %122 = getelementptr inbounds [300 x i32], [300 x i32]* %5, i64 0, i64 %121
  %123 = load i32, i32* %122, align 4
  %124 = call i32 (i8*, ...) @printf(i8* getelementptr inbounds ([4 x i8], [4 x i8]* @.str.1, i64 0, i64 0), i32 %123)
  br label %129

125:                                              ; preds = %110
  br label %126

126:                                              ; preds = %125
  %127 = load i32, i32* %1, align 4
  %128 = add nsw i32 %127, 1
  store i32 %128, i32* %1, align 4
  br label %106

129:                                              ; preds = %119, %106
  %130 = load i32, i32* %1, align 4
  %131 = load i32, i32* %4, align 4
  %132 = icmp eq i32 %130, %131
  br i1 %132, label %133, label %135

133:                                              ; preds = %129
  %134 = call i32 (i8*, ...) @printf(i8* getelementptr inbounds ([4 x i8], [4 x i8]* @.str.2, i64 0, i64 0))
  br label %135

135:                                              ; preds = %133, %129
  ret void
}

; Function Attrs: argmemonly nounwind willreturn
declare void @llvm.memset.p0i8.i64(i8* nocapture writeonly, i8, i64, i1 immarg) #1

declare dso_local i32 @__isoc99_scanf(i8*, ...) #2

declare dso_local i32 @printf(i8*, ...) #2


!llvm.module.flags = !{!0}
!llvm.ident = !{!1}

!0 = !{i32 1, !"wchar_size", i32 4}
!1 = !{!"clang version 10.0.0-4ubuntu1 "}
